target datalayout = "e-m:e-p270:32:32-p271:32:32-p272:64:64-i64:64-i128:128-f80:128-n8:16:32:64-S128"
target triple = "x86_64-pc-linux-gnu"

; Function Attrs: nounwind sspstrong uwtable
define dso_local void @tcg_gen_call5(ptr noundef %0, ptr noundef %1, ptr noundef %2, ptr noundef %3, ptr noundef %4, ptr noundef %5, ptr noundef %6, ptr noundef %7) #0 {
  %9 = alloca ptr, align 8
  %10 = alloca ptr, align 8
  %11 = alloca ptr, align 8
  %12 = alloca ptr, align 8
  %13 = alloca ptr, align 8
  %14 = alloca ptr, align 8
  %15 = alloca ptr, align 8
  %16 = alloca ptr, align 8
  %17 = alloca [5 x ptr], align 16
  store ptr %0, ptr %9, align 8
  store ptr %1, ptr %10, align 8
  store ptr %2, ptr %11, align 8
  store ptr %3, ptr %12, align 8
  store ptr %4, ptr %13, align 8
  store ptr %5, ptr %14, align 8
  store ptr %6, ptr %15, align 8
  store ptr %7, ptr %16, align 8
  call void @llvm.lifetime.start.p0(i64 40, ptr %17) #19
  call void @llvm.memset.p0.i64(ptr align 16 %17, i8 0, i64 40, i1 false), !annotation !4
  %18 = load ptr, ptr %12, align 8
  store ptr %18, ptr %17, align 8
  %19 = getelementptr inbounds ptr, ptr %17, i64 1
  %20 = load ptr, ptr %13, align 8
  store ptr %20, ptr %19, align 8
  %21 = getelementptr inbounds ptr, ptr %17, i64 2
  %22 = load ptr, ptr %14, align 8
  store ptr %22, ptr %21, align 8
  %23 = getelementptr inbounds ptr, ptr %17, i64 3
  %24 = load ptr, ptr %15, align 8
  store ptr %24, ptr %23, align 8
  %25 = getelementptr inbounds ptr, ptr %17, i64 4
  %26 = load ptr, ptr %16, align 8
  store ptr %26, ptr %25, align 8
  %27 = load ptr, ptr %9, align 8
  %28 = load ptr, ptr %10, align 8
  %29 = load ptr, ptr %11, align 8
  %30 = getelementptr inbounds [5 x ptr], ptr %17, i64 0, i64 0
  call void @tcg_gen_callN(ptr noundef %27, ptr noundef %28, ptr noundef %29, ptr noundef %30)
  call void @llvm.lifetime.end.p0(i64 40, ptr %17) #19
  ret void
}