; Function Attrs: nounwind sspstrong uwtable
define dso_local void @tcg_gen_call5(ptr noundef %0, ptr noundef %1, ptr noundef %2, ptr noundef %3, ptr noundef %4, ptr noundef %5, ptr noundef %6, ptr noundef %7) local_unnamed_addr #0 {
  %9 = alloca [5 x ptr], align 16
  call void @llvm.lifetime.start.p0(i64 40, ptr nonnull %9) #30
  store ptr %3, ptr %9, align 16
  %10 = getelementptr inbounds nuw i8, ptr %9, i64 8
  store ptr %4, ptr %10, align 8
  %11 = getelementptr inbounds nuw i8, ptr %9, i64 16
  store ptr %5, ptr %11, align 16
  %12 = getelementptr inbounds nuw i8, ptr %9, i64 24
  store ptr %6, ptr %12, align 8
  %13 = getelementptr inbounds nuw i8, ptr %9, i64 32
  store ptr %7, ptr %13, align 16
  call fastcc void @tcg_gen_callN(ptr noundef %0, ptr noundef %1, ptr noundef %2, ptr noundef nonnull %9)
  call void @llvm.lifetime.end.p0(i64 40, ptr nonnull %9) #30
  ret void
}